; Function Attrs: uwtable
define void @_ZTv0_n32_N8QuantLib26SwaptionVolatilityDiscrete6updateEv(ptr noundef %this) unnamed_addr #12 align 2 personality ptr @__gxx_personality_v0 {
entry:
  %vtable = load ptr, ptr %this, align 8, !tbaa !22
  %0 = getelementptr inbounds i8, ptr %vtable, i64 -32
  %1 = load i64, ptr %0, align 8
  %2 = getelementptr inbounds i8, ptr %this, i64 %1
  %add.ptr.i = getelementptr inbounds i8, ptr %2, i64 16
  tail call void @_ZN8QuantLib13TermStructure6updateEv(ptr noundef nonnull align 8 dereferenceable(64) %add.ptr.i)
  %updating_.i.i = getelementptr inbounds nuw i8, ptr %2, i64 11
  %3 = load i8, ptr %updating_.i.i, align 1, !tbaa !24, !range !26, !noundef !27
  %loadedv.i.i = trunc nuw i8 %3 to i1
  br i1 %loadedv.i.i, label %_ZN8QuantLib26SwaptionVolatilityDiscrete6updateEv.exit, label %if.end.i.i

if.end.i.i:                                       ; preds = %entry
  store i8 1, ptr %updating_.i.i, align 1, !tbaa !24
  %calculated_.i.i = getelementptr inbounds nuw i8, ptr %2, i64 8
  %4 = load i8, ptr %calculated_.i.i, align 8, !tbaa !28, !range !26, !noundef !27
  %loadedv2.i.i = trunc nuw i8 %4 to i1
  br i1 %loadedv2.i.i, label %if.then4.i.i, label %lor.lhs.false.i.i

lor.lhs.false.i.i:                                ; preds = %if.end.i.i
  %alwaysForward_.i.i = getelementptr inbounds nuw i8, ptr %2, i64 10
  %5 = load i8, ptr %alwaysForward_.i.i, align 2, !tbaa !29, !range !26, !noundef !27
  %loadedv3.i.i = trunc nuw i8 %5 to i1
  br i1 %loadedv3.i.i, label %if.then4.i.i, label %if.end9.i.i

if.then4.i.i:                                     ; preds = %lor.lhs.false.i.i, %if.end.i.i
  store i8 0, ptr %calculated_.i.i, align 8, !tbaa !28
  %frozen_.i.i = getelementptr inbounds nuw i8, ptr %2, i64 9
  %6 = load i8, ptr %frozen_.i.i, align 1, !tbaa !30, !range !26, !noundef !27
  %loadedv6.i.i = trunc nuw i8 %6 to i1
  br i1 %loadedv6.i.i, label %if.end9.i.i, label %if.then7.i.i

if.then7.i.i:                                     ; preds = %if.then4.i.i
  %vtable.i.i = load ptr, ptr %2, align 8, !tbaa !22
  %vbase.offset.ptr.i.i = getelementptr i8, ptr %vtable.i.i, i64 -24
  %vbase.offset.i.i = load i64, ptr %vbase.offset.ptr.i.i, align 8
  %add.ptr.i.i = getelementptr inbounds i8, ptr %2, i64 %vbase.offset.i.i
  invoke void @_ZN8QuantLib10Observable15notifyObserversEv(ptr noundef nonnull align 8 dereferenceable(56) %add.ptr.i.i)
          to label %if.end9.i.i unwind label %lpad.i.i

lpad.i.i:                                         ; preds = %if.then7.i.i
  %7 = landingpad { ptr, i32 }
          cleanup
  store i8 0, ptr %updating_.i.i, align 1, !tbaa !24
  resume { ptr, i32 } %7

if.end9.i.i:                                      ; preds = %if.then7.i.i, %if.then4.i.i, %lor.lhs.false.i.i
  store i8 0, ptr %updating_.i.i, align 1, !tbaa !24
  br label %_ZN8QuantLib26SwaptionVolatilityDiscrete6updateEv.exit

_ZN8QuantLib26SwaptionVolatilityDiscrete6updateEv.exit: ; preds = %entry, %if.end9.i.i
  ret void
}